(dp1
(F7
F3
tp2
F0
s(F6
F9
tp3
F0
s(F12
F1
tp4
F1
s(F-1
F0
tp5
F2784
s(F7
F12
tp6
F0
s(F14
F4
tp7
F0
s(F13
F4
tp8
F0
s(F12
F12
tp9
F4
s(F0
F7
tp10
F0
s(F1
F6
tp11
F52
s(F0
F10
tp12
F9
s(F3
F7
tp13
F2
s(F2
F5
tp14
F13
s(F1
F11
tp15
F5
s(F8
F5
tp16
F0
s(F5
F8
tp17
F0
s(F4
F0
tp18
F0
s(F10
F8
tp19
F0
s(F9
F0
tp20
F0
s(F6
F7
tp21
F0
s(F5
F5
tp22
F0
s(F-1
F14
tp23
F0
s(F10
F7
tp24
F2
s(F7
F6
tp25
F0
s(F6
F10
tp26
F0
s(F12
F6
tp27
F2
s(F14
F1
tp28
F0
s(F11
F1
tp29
F20
s(F0
F4
tp30
F0
s(F1
F1
tp31
F1433
s(F4
F10
tp32
F0
s(F3
F2
tp33
F28
s(F2
F6
tp34
F19
s(F9
F14
tp35
F0
s(F8
F2
tp36
F0
s(F5
F11
tp37
F0
s(F4
F5
tp38
F0
s(F10
F13
tp39
F0
s(F-1
F-1
tp40
F0
s(F6
F0
tp41
F0
s(F-1
F11
tp42
F13
s(F7
F5
tp43
F0
s(F12
F11
tp44
F4
s(F14
F2
tp45
F0
s(F13
F10
tp46
F0
s(F0
F1
tp47
F66
s(F9
F3
tp48
F0
s(F3
F12
tp49
F0
s(F1
F12
tp50
F1
s(F8
F12
tp51
F0
s(F3
F1
tp52
F38
s(F2
F11
tp53
F3
s(F9
F9
tp54
F0
s(F6
F-1
tp55
F0
s(F5
F14
tp56
F0
s(F11
F8
tp57
F0
s(F10
F14
tp58
F0
s(F6
F13
tp59
F0
s(F-1
F4
tp60
F0
s(F7
F8
tp61
F0
s(F14
F8
tp62
F0
s(F13
F0
tp63
F0
s(F12
F8
tp64
F0
s(F11
F14
tp65
F0
s(F0
F14
tp66
F0
s(F11
F11
tp67
F193
s(F3
F11
tp68
F1
s(F2
F1
tp69
F475
s(F8
F9
tp70
F0
s(F7
F-1
tp71
F0
s(F4
F12
tp72
F0
s(F2
F12
tp73
F1
s(F9
F4
tp74
F0
s(F5
F1
tp75
F0
s(F10
F3
tp76
F0
s(F4
F-1
tp77
F0
s(F7
F2
tp78
F0
s(F6
F14
tp79
F0
s(F12
F2
tp80
F1
s(F-1
F1
tp81
F272
s(F14
F5
tp82
F0
s(F13
F3
tp83
F0
s(F12
F13
tp84
F0
s(F12
F9
tp85
F0
s(F1
F5
tp86
F37
s(F0
F11
tp87
F1
s(F3
F6
tp88
F6
s(F2
F2
tp89
F295
s(F1
F10
tp90
F14
s(F8
F6
tp91
F0
s(F4
F1
tp92
F0
s(F10
F9
tp93
F0
s(F9
F7
tp94
F0
s(F5
F-1
tp95
F0
s(F6
F4
tp96
F0
s(F5
F4
tp97
F0
s(F-1
F2
tp98
F54
s(F11
F4
tp99
F0
s(F10
F4
tp100
F0
s(F7
F1
tp101
F0
s(F6
F11
tp102
F0
s(F12
F7
tp103
F3
s(F2
F-1
tp104
F0
s(F14
F6
tp105
F0
s(F13
F6
tp106
F0
s(F13
F-1
tp107
F0
s(F0
F5
tp108
F16
s(F1
F0
tp109
F715
s(F0
F8
tp110
F0
s(F4
F11
tp111
F0
s(F3
F5
tp112
F0
s(F2
F7
tp113
F13
s(F9
F13
tp114
F0
s(F8
F3
tp115
F0
s(F5
F10
tp116
F0
s(F4
F6
tp117
F0
s(F10
F10
tp118
F771
s(F9
F2
tp119
F0
s(F6
F1
tp120
F0
s(F5
F7
tp121
F0
s(F-1
F8
tp122
F0
s(F3
F-1
tp123
F0
s(F7
F4
tp124
F0
s(F14
F12
tp125
F0
s(F12
F4
tp126
F0
s(F14
F3
tp127
F0
s(F0
F-1
tp128
F0
s(F0
F2
tp129
F4
s(F1
F3
tp130
F24
s(F8
F13
tp131
F0
s(F4
F8
tp132
F0
s(F3
F0
tp133
F7
s(F2
F8
tp134
F0
s(F9
F8
tp135
F0
s(F8
F0
tp136
F0
s(F5
F13
tp137
F0
s(F11
F7
tp138
F15
s(F6
F2
tp139
F0
s(F-1
F5
tp140
F74
s(F11
F10
tp141
F212
s(F7
F11
tp142
F0
s(F14
F9
tp143
F0
s(F1
F-1
tp144
F2
s(F13
F13
tp145
F0
s(F13
F12
tp146
F0
s(F14
F-1
tp147
F0
s(F11
F12
tp148
F13
s(F3
F10
tp149
F0
s(F1
F14
tp150
F0
s(F8
F10
tp151
F0
s(F4
F13
tp152
F0
s(F2
F13
tp153
F0
s(F9
F11
tp154
F0
s(F5
F0
tp155
F0
s(F10
F0
tp156
F62
s(F11
F2
tp157
F3
s(F12
F3
tp158
F0
s(F-1
F6
tp159
F27
s(F7
F14
tp160
F0
s(F14
F10
tp161
F0
s(F13
F2
tp162
F0
s(F12
F14
tp163
F0
s(F13
F1
tp164
F0
s(F1
F4
tp165
F2
s(F0
F12
tp166
F0
s(F3
F9
tp167
F0
s(F2
F3
tp168
F47
s(F1
F9
tp169
F0
s(F8
F7
tp170
F0
s(F4
F2
tp171
F0
s(F2
F14
tp172
F0
s(F9
F6
tp173
F0
s(F6
F5
tp174
F0
s(F5
F3
tp175
F0
s(F-1
F12
tp176
F5
s(F10
F5
tp177
F297
s(F7
F0
tp178
F0
s(F6
F8
tp179
F0
s(F12
F0
tp180
F0
s(F-1
F3
tp181
F5
s(F7
F13
tp182
F0
s(F14
F7
tp183
F0
s(F13
F5
tp184
F1
s(F0
F6
tp185
F2
s(F11
F9
tp186
F0
s(F1
F7
tp187
F13
s(F0
F9
tp188
F0
s(F11
F13
tp189
F2
s(F3
F4
tp190
F0
s(F2
F4
tp191
F5
s(F9
F12
tp192
F0
s(F8
F4
tp193
F0
s(F13
F7
tp194
F1
s(F5
F9
tp195
F0
s(F4
F7
tp196
F0
s(F10
F-1
tp197
F0
s(F10
F11
tp198
F37
s(F9
F1
tp199
F0
s(F6
F6
tp200
F0
s(F5
F6
tp201
F0
s(F-1
F9
tp202
F0
s(F10
F6
tp203
F59
s(F7
F7
tp204
F0
s(F12
F-1
tp205
F0
s(F11
F3
tp206
F0
s(F12
F5
tp207
F0
s(F14
F0
tp208
F0
s(F13
F8
tp209
F0
s(F0
F3
tp210
F0
s(F3
F14
tp211
F0
s(F1
F2
tp212
F242
s(F8
F14
tp213
F0
s(F4
F9
tp214
F0
s(F3
F3
tp215
F9
s(F2
F9
tp216
F0
s(F8
F1
tp217
F0
s(F5
F12
tp218
F0
s(F4
F4
tp219
F0
s(F10
F12
tp220
F4
s(F6
F3
tp221
F0
s(F8
F-1
tp222
F0
s(F-1
F10
tp223
F86
s(F7
F10
tp224
F0
s(F14
F14
tp225
F0
s(F12
F10
tp226
F1
s(F13
F11
tp227
F1
s(F0
F0
tp228
F1087
s(F3
F13
tp229
F0
s(F1
F13
tp230
F0
s(F8
F11
tp231
F0
s(F4
F14
tp232
F0
s(F2
F10
tp233
F5
s(F9
F10
tp234
F0
s(F9
F-1
tp235
F0
s(F10
F1
tp236
F16
s(F13
F9
tp237
F0
s(F6
F12
tp238
F0
s(F-1
F7
tp239
F11
s(F7
F9
tp240
F0
s(F14
F11
tp241
F0
s(F11
F0
tp242
F9
s(F11
F-1
tp243
F0
s(F14
F13
tp244
F0
s(F13
F14
tp245
F0
s(F0
F13
tp246
F0
s(F3
F8
tp247
F0
s(F2
F0
tp248
F124
s(F1
F8
tp249
F1
s(F8
F8
tp250
F0
s(F11
F6
tp251
F87
s(F4
F3
tp252
F0
s(F9
F5
tp253
F0
s(F11
F5
tp254
F64
s(F5
F2
tp255
F0
s(F-1
F13
tp256
F0
s(F10
F2
tp257
F3
s.